; Function Attrs: mustprogress nounwind uwtable
define hidden { ptr, i8 } @_ZN4llvm12InstCombiner26targetInstCombineIntrinsicERNS_13IntrinsicInstE(ptr noundef nonnull align 8 dereferenceable(1081) %0, ptr noundef nonnull align 8 dereferenceable(88) %1) local_unnamed_addr #0 align 2 {
_ZN4llvm16dyn_cast_or_nullINS_8FunctionENS_5ValueEEEDaPT0_.exit.i:
  %2 = getelementptr inbounds i8, ptr %1, i64 -32
  %3 = load ptr, ptr %2, align 8, !nonnull !4, !noundef !4
  %4 = load i8, ptr %3, align 8
  %5 = icmp eq i8 %4, 0
  tail call void @llvm.assume(i1 %5)
  %6 = getelementptr inbounds nuw i8, ptr %3, i64 24
  %7 = load ptr, ptr %6, align 8
  %8 = getelementptr inbounds nuw i8, ptr %1, i64 80
  %9 = load ptr, ptr %8, align 8
  %10 = icmp eq ptr %7, %9
  tail call void @llvm.assume(i1 %10)
  %11 = tail call noundef zeroext i1 @_ZNK4llvm8Function17isTargetIntrinsicEv(ptr noundef nonnull align 8 dereferenceable(136) %3) #27
  br i1 %11, label %12, label %18

12:                                               ; preds = %_ZN4llvm16dyn_cast_or_nullINS_8FunctionENS_5ValueEEEDaPT0_.exit.i
  %13 = getelementptr inbounds nuw i8, ptr %0, i64 8
  %14 = load ptr, ptr %13, align 8
  %15 = tail call { ptr, i8 } @_ZNK4llvm19TargetTransformInfo20instCombineIntrinsicERNS_12InstCombinerERNS_13IntrinsicInstE(ptr noundef nonnull align 8 dereferenceable(8) %14, ptr noundef nonnull align 8 dereferenceable(1081) %0, ptr noundef nonnull align 8 dereferenceable(88) %1) #27
  %16 = extractvalue { ptr, i8 } %15, 0
  %17 = extractvalue { ptr, i8 } %15, 1
  br label %18

18:                                               ; preds = %_ZN4llvm16dyn_cast_or_nullINS_8FunctionENS_5ValueEEEDaPT0_.exit.i, %12
  %.sroa.2.0 = phi i8 [ %17, %12 ], [ 0, %_ZN4llvm16dyn_cast_or_nullINS_8FunctionENS_5ValueEEEDaPT0_.exit.i ]
  %.sroa.0.0 = phi ptr [ %16, %12 ], [ undef, %_ZN4llvm16dyn_cast_or_nullINS_8FunctionENS_5ValueEEEDaPT0_.exit.i ]
  %.fca.0.insert = insertvalue { ptr, i8 } poison, ptr %.sroa.0.0, 0
  %.fca.1.insert = insertvalue { ptr, i8 } %.fca.0.insert, i8 %.sroa.2.0, 1
  ret { ptr, i8 } %.fca.1.insert
}